target datalayout = "e-m:e-p270:32:32-p271:32:32-p272:64:64-i64:64-i128:128-f80:128-n8:16:32:64-S128"
target triple = "x86_64-pc-linux-gnu"

%struct._lv_iter_t = type { ptr, i32, ptr, i32, ptr, i32, ptr }

; Function Attrs: nounwind uwtable
define ptr @lv_iter_create(ptr noundef %0, i32 noundef %1, i32 noundef %2, ptr noundef %3) #0 {
  %5 = alloca ptr, align 8
  %6 = alloca ptr, align 8
  %7 = alloca i32, align 4
  %8 = alloca i32, align 4
  %9 = alloca ptr, align 8
  %10 = alloca ptr, align 8
  %11 = alloca i32, align 4
  store ptr %0, ptr %6, align 8, !tbaa !3
  store i32 %1, ptr %7, align 4, !tbaa !7
  store i32 %2, ptr %8, align 4, !tbaa !7
  store ptr %3, ptr %9, align 8, !tbaa !3
  call void @llvm.lifetime.start.p0(i64 8, ptr %10) #3
  %12 = call ptr @lv_malloc_zeroed(i64 noundef 56)
  store ptr %12, ptr %10, align 8, !tbaa !3
  br label %13

13:                                               ; preds = %4
  %14 = load ptr, ptr %10, align 8, !tbaa !3
  %15 = icmp ne ptr %14, null
  br i1 %15, label %22, label %16

16:                                               ; preds = %13
  br label %17

17:                                               ; preds = %16
  br label %18

18:                                               ; preds = %17
  br label %19

19:                                               ; preds = %18
  br label %20

20:                                               ; preds = %21, %19
  br label %21

21:                                               ; preds = %20
  br label %20

22:                                               ; preds = %13
  br label %23

23:                                               ; preds = %22
  br label %24

24:                                               ; preds = %23
  %25 = load ptr, ptr %10, align 8, !tbaa !3
  %26 = icmp eq ptr %25, null
  br i1 %26, label %27, label %31

27:                                               ; preds = %24
  br label %28

28:                                               ; preds = %27
  br label %29

29:                                               ; preds = %28
  br label %30

30:                                               ; preds = %29
  store ptr null, ptr %5, align 8
  store i32 1, ptr %11, align 4
  br label %68

31:                                               ; preds = %24
  %32 = load ptr, ptr %6, align 8, !tbaa !3
  %33 = load ptr, ptr %10, align 8, !tbaa !3
  %34 = getelementptr inbounds nuw %struct._lv_iter_t, ptr %33, i32 0, i32 0
  store ptr %32, ptr %34, align 8, !tbaa !9
  %35 = load i32, ptr %7, align 4, !tbaa !7
  %36 = load ptr, ptr %10, align 8, !tbaa !3
  %37 = getelementptr inbounds nuw %struct._lv_iter_t, ptr %36, i32 0, i32 1
  store i32 %35, ptr %37, align 8, !tbaa !11
  %38 = load i32, ptr %8, align 4, !tbaa !7
  %39 = load ptr, ptr %10, align 8, !tbaa !3
  %40 = getelementptr inbounds nuw %struct._lv_iter_t, ptr %39, i32 0, i32 3
  store i32 %38, ptr %40, align 8, !tbaa !12
  %41 = load ptr, ptr %9, align 8, !tbaa !3
  %42 = load ptr, ptr %10, align 8, !tbaa !3
  %43 = getelementptr inbounds nuw %struct._lv_iter_t, ptr %42, i32 0, i32 6
  store ptr %41, ptr %43, align 8, !tbaa !13
  %44 = load i32, ptr %8, align 4, !tbaa !7
  %45 = icmp ugt i32 %44, 0
  br i1 %45, label %46, label %66

46:                                               ; preds = %31
  %47 = load i32, ptr %8, align 4, !tbaa !7
  %48 = zext i32 %47 to i64
  %49 = call ptr @lv_malloc_zeroed(i64 noundef %48)
  %50 = load ptr, ptr %10, align 8, !tbaa !3
  %51 = getelementptr inbounds nuw %struct._lv_iter_t, ptr %50, i32 0, i32 2
  store ptr %49, ptr %51, align 8, !tbaa !14
  br label %52

52:                                               ; preds = %46
  %53 = load ptr, ptr %10, align 8, !tbaa !3
  %54 = getelementptr inbounds nuw %struct._lv_iter_t, ptr %53, i32 0, i32 2
  %55 = load ptr, ptr %54, align 8, !tbaa !14
  %56 = icmp ne ptr %55, null
  br i1 %56, label %63, label %57

57:                                               ; preds = %52
  br label %58

58:                                               ; preds = %57
  br label %59

59:                                               ; preds = %58
  br label %60

60:                                               ; preds = %59
  br label %61

61:                                               ; preds = %62, %60
  br label %62

62:                                               ; preds = %61
  br label %61

63:                                               ; preds = %52
  br label %64

64:                                               ; preds = %63
  br label %65

65:                                               ; preds = %64
  br label %66

66:                                               ; preds = %65, %31
  %67 = load ptr, ptr %10, align 8, !tbaa !3
  store ptr %67, ptr %5, align 8
  store i32 1, ptr %11, align 4
  br label %68

68:                                               ; preds = %66, %30
  call void @llvm.lifetime.end.p0(i64 8, ptr %10) #3
  %69 = load ptr, ptr %5, align 8
  ret ptr %69
}