; Function Attrs: nounwind uwtable
define nonnull ptr @lv_iter_create(ptr noundef %0, i32 noundef %1, i32 noundef %2, ptr noundef %3) local_unnamed_addr #0 {
  %5 = tail call ptr @lv_malloc_zeroed(i64 noundef 56) #4
  %.not = icmp eq ptr %5, null
  br i1 %.not, label %.preheader, label %6

.preheader:                                       ; preds = %4, %.preheader
  br label %.preheader

6:                                                ; preds = %4
  store ptr %0, ptr %5, align 8, !tbaa !3
  %7 = getelementptr inbounds nuw i8, ptr %5, i64 8
  store i32 %1, ptr %7, align 8, !tbaa !9
  %8 = getelementptr inbounds nuw i8, ptr %5, i64 24
  store i32 %2, ptr %8, align 8, !tbaa !10
  %9 = getelementptr inbounds nuw i8, ptr %5, i64 48
  store ptr %3, ptr %9, align 8, !tbaa !11
  %.not17 = icmp eq i32 %2, 0
  br i1 %.not17, label %14, label %10

10:                                               ; preds = %6
  %11 = zext i32 %2 to i64
  %12 = tail call ptr @lv_malloc_zeroed(i64 noundef %11) #4
  %13 = getelementptr inbounds nuw i8, ptr %5, i64 16
  store ptr %12, ptr %13, align 8, !tbaa !12
  %.not18 = icmp eq ptr %12, null
  br i1 %.not18, label %.preheader19, label %14

.preheader19:                                     ; preds = %10, %.preheader19
  br label %.preheader19

14:                                               ; preds = %6, %10
  ret ptr %5
}